target datalayout = "e-m:e-p270:32:32-p271:32:32-p272:64:64-i64:64-i128:128-f80:128-n8:16:32:64-S128"
target triple = "x86_64-pc-linux-gnu"

%struct._asn1_ctx_t = type { i32, i32, i8, ptr, ptr, ptr, ptr, ptr, %struct.anon.1, %struct.anon.4, %struct.anon.5, ptr }
%struct.anon.1 = type { i32, i8, i8, i8, ptr, ptr, i32, i32, ptr, ptr, ptr, %union.anon }
%union.anon = type { %struct.anon.2 }
%struct.anon.2 = type { ptr }
%struct.anon.4 = type { ptr, ptr, ptr }
%struct.anon.5 = type { i32, i8, ptr, i32, i32, ptr, ptr, ptr, %union.anon.6 }
%union.anon.6 = type { %struct.anon.7 }
%struct.anon.7 = type { ptr }

@ett_camel_callingpartynumber = internal global i32 0, align 4

; Function Attrs: null_pointer_is_valid sspstrong uwtable
define internal i32 @dissect_camel_CallingPartyNumber(i1 noundef zeroext %0, ptr noundef %1, i32 noundef %2, ptr noundef %3, ptr noundef %4, i32 noundef %5) #0 {
  %7 = alloca i32, align 4
  %8 = alloca i8, align 1
  %9 = alloca ptr, align 8
  %10 = alloca i32, align 4
  %11 = alloca ptr, align 8
  %12 = alloca ptr, align 8
  %13 = alloca i32, align 4
  %14 = alloca ptr, align 8
  %15 = alloca ptr, align 8
  %16 = alloca i32, align 4
  %17 = zext i1 %0 to i8
  store i8 %17, ptr %8, align 1
  store ptr %1, ptr %9, align 8
  store i32 %2, ptr %10, align 4
  store ptr %3, ptr %11, align 8
  store ptr %4, ptr %12, align 8
  store i32 %5, ptr %13, align 4
  call void @llvm.lifetime.start.p0(i64 8, ptr %14) #11
  call void @llvm.lifetime.start.p0(i64 8, ptr %15) #11
  %18 = load i8, ptr %8, align 1, !range !6, !noundef !7
  %19 = trunc i8 %18 to i1
  %20 = load ptr, ptr %11, align 8
  %21 = load ptr, ptr %12, align 8
  %22 = load ptr, ptr %9, align 8
  %23 = load i32, ptr %10, align 4
  %24 = load i32, ptr %13, align 4
  %25 = call i32 @dissect_ber_octet_string(i1 noundef zeroext %19, ptr noundef %20, ptr noundef %21, ptr noundef %22, i32 noundef %23, i32 noundef %24, ptr noundef %14)
  store i32 %25, ptr %10, align 4
  %26 = load ptr, ptr %14, align 8
  %27 = icmp ne ptr %26, null
  br i1 %27, label %30, label %28

28:                                               ; preds = %6
  %29 = load i32, ptr %10, align 4
  store i32 %29, ptr %7, align 4
  store i32 1, ptr %16, align 4
  br label %42

30:                                               ; preds = %6
  %31 = load ptr, ptr %11, align 8
  %32 = getelementptr inbounds nuw %struct._asn1_ctx_t, ptr %31, i32 0, i32 4
  %33 = load ptr, ptr %32, align 8
  %34 = load i32, ptr @ett_camel_callingpartynumber, align 4
  %35 = call ptr @proto_item_add_subtree(ptr noundef %33, i32 noundef %34)
  store ptr %35, ptr %15, align 8
  %36 = load ptr, ptr %14, align 8
  %37 = load ptr, ptr %11, align 8
  %38 = getelementptr inbounds nuw %struct._asn1_ctx_t, ptr %37, i32 0, i32 3
  %39 = load ptr, ptr %38, align 8
  %40 = load ptr, ptr %15, align 8
  call void @dissect_isup_calling_party_number_parameter(ptr noundef %36, ptr noundef %39, ptr noundef %40, ptr noundef null)
  %41 = load i32, ptr %10, align 4
  store i32 %41, ptr %7, align 4
  store i32 1, ptr %16, align 4
  br label %42

42:                                               ; preds = %30, %28
  call void @llvm.lifetime.end.p0(i64 8, ptr %15) #11
  call void @llvm.lifetime.end.p0(i64 8, ptr %14) #11
  %43 = load i32, ptr %7, align 4
  ret i32 %43
}